target datalayout = "e-m:e-p270:32:32-p271:32:32-p272:64:64-i64:64-i128:128-f80:128-n8:16:32:64-S128"
target triple = "x86_64-pc-linux-gnu"

%struct.FunctionCallInfoBaseData = type { ptr, ptr, ptr, i32, i8, i16, [0 x %struct.NullableDatum] }
%struct.NullableDatum = type { i64, i8 }
%struct.GISTENTRY = type { i64, ptr, ptr, i16, i8 }
%struct.GistEntryVector = type { i32, [0 x %struct.GISTENTRY] }
%struct.BOX = type { %struct.Point, %struct.Point }
%struct.Point = type { double, double }

; Function Attrs: inlinehint nounwind uwtable
define internal zeroext i1 @float8_gt(double noundef %0, double noundef %1) #2 {
  %3 = alloca double, align 8
  %4 = alloca double, align 8
  store double %0, ptr %3, align 8
  store double %1, ptr %4, align 8
  %5 = load double, ptr %4, align 8
  %6 = call i1 @llvm.is.fpclass.f64(double %5, i32 3)
  br i1 %6, label %16, label %7

7:                                                ; preds = %2
  %8 = load double, ptr %3, align 8
  %9 = call i1 @llvm.is.fpclass.f64(double %8, i32 3)
  br i1 %9, label %14, label %10

10:                                               ; preds = %7
  %11 = load double, ptr %3, align 8
  %12 = load double, ptr %4, align 8
  %13 = fcmp ogt double %11, %12
  br label %14

14:                                               ; preds = %10, %7
  %15 = phi i1 [ true, %7 ], [ %13, %10 ]
  br label %16

16:                                               ; preds = %14, %2
  %17 = phi i1 [ false, %2 ], [ %15, %14 ]
  ret i1 %17
}

; Function Attrs: inlinehint nounwind uwtable
define internal zeroext i1 @float8_lt(double noundef %0, double noundef %1) #2 {
  %3 = alloca double, align 8
  %4 = alloca double, align 8
  store double %0, ptr %3, align 8
  store double %1, ptr %4, align 8
  %5 = load double, ptr %3, align 8
  %6 = call i1 @llvm.is.fpclass.f64(double %5, i32 3)
  br i1 %6, label %16, label %7

7:                                                ; preds = %2
  %8 = load double, ptr %4, align 8
  %9 = call i1 @llvm.is.fpclass.f64(double %8, i32 3)
  br i1 %9, label %14, label %10

10:                                               ; preds = %7
  %11 = load double, ptr %3, align 8
  %12 = load double, ptr %4, align 8
  %13 = fcmp olt double %11, %12
  br label %14

14:                                               ; preds = %10, %7
  %15 = phi i1 [ true, %7 ], [ %13, %10 ]
  br label %16

16:                                               ; preds = %14, %2
  %17 = phi i1 [ false, %2 ], [ %15, %14 ]
  ret i1 %17
}

; Function Attrs: inlinehint nounwind uwtable
define internal i64 @PointerGetDatum(ptr noundef %0) #2 {
  %2 = alloca ptr, align 8
  store ptr %0, ptr %2, align 8
  %3 = load ptr, ptr %2, align 8
  %4 = ptrtoint ptr %3 to i64
  ret i64 %4
}

; Function Attrs: nounwind uwtable
define internal void @adjustBox(ptr noundef %0, ptr noundef %1) #0 {
  %3 = alloca ptr, align 8
  %4 = alloca ptr, align 8
  store ptr %0, ptr %3, align 8
  store ptr %1, ptr %4, align 8
  %5 = load ptr, ptr %3, align 8
  %6 = getelementptr inbounds nuw %struct.BOX, ptr %5, i32 0, i32 0
  %7 = getelementptr inbounds nuw %struct.Point, ptr %6, i32 0, i32 0
  %8 = load double, ptr %7, align 8
  %9 = load ptr, ptr %4, align 8
  %10 = getelementptr inbounds nuw %struct.BOX, ptr %9, i32 0, i32 0
  %11 = getelementptr inbounds nuw %struct.Point, ptr %10, i32 0, i32 0
  %12 = load double, ptr %11, align 8
  %13 = call zeroext i1 @float8_lt(double noundef %8, double noundef %12)
  br i1 %13, label %14, label %22

14:                                               ; preds = %2
  %15 = load ptr, ptr %4, align 8
  %16 = getelementptr inbounds nuw %struct.BOX, ptr %15, i32 0, i32 0
  %17 = getelementptr inbounds nuw %struct.Point, ptr %16, i32 0, i32 0
  %18 = load double, ptr %17, align 8
  %19 = load ptr, ptr %3, align 8
  %20 = getelementptr inbounds nuw %struct.BOX, ptr %19, i32 0, i32 0
  %21 = getelementptr inbounds nuw %struct.Point, ptr %20, i32 0, i32 0
  store double %18, ptr %21, align 8
  br label %22

22:                                               ; preds = %14, %2
  %23 = load ptr, ptr %3, align 8
  %24 = getelementptr inbounds nuw %struct.BOX, ptr %23, i32 0, i32 1
  %25 = getelementptr inbounds nuw %struct.Point, ptr %24, i32 0, i32 0
  %26 = load double, ptr %25, align 8
  %27 = load ptr, ptr %4, align 8
  %28 = getelementptr inbounds nuw %struct.BOX, ptr %27, i32 0, i32 1
  %29 = getelementptr inbounds nuw %struct.Point, ptr %28, i32 0, i32 0
  %30 = load double, ptr %29, align 8
  %31 = call zeroext i1 @float8_gt(double noundef %26, double noundef %30)
  br i1 %31, label %32, label %40

32:                                               ; preds = %22
  %33 = load ptr, ptr %4, align 8
  %34 = getelementptr inbounds nuw %struct.BOX, ptr %33, i32 0, i32 1
  %35 = getelementptr inbounds nuw %struct.Point, ptr %34, i32 0, i32 0
  %36 = load double, ptr %35, align 8
  %37 = load ptr, ptr %3, align 8
  %38 = getelementptr inbounds nuw %struct.BOX, ptr %37, i32 0, i32 1
  %39 = getelementptr inbounds nuw %struct.Point, ptr %38, i32 0, i32 0
  store double %36, ptr %39, align 8
  br label %40

40:                                               ; preds = %32, %22
  %41 = load ptr, ptr %3, align 8
  %42 = getelementptr inbounds nuw %struct.BOX, ptr %41, i32 0, i32 0
  %43 = getelementptr inbounds nuw %struct.Point, ptr %42, i32 0, i32 1
  %44 = load double, ptr %43, align 8
  %45 = load ptr, ptr %4, align 8
  %46 = getelementptr inbounds nuw %struct.BOX, ptr %45, i32 0, i32 0
  %47 = getelementptr inbounds nuw %struct.Point, ptr %46, i32 0, i32 1
  %48 = load double, ptr %47, align 8
  %49 = call zeroext i1 @float8_lt(double noundef %44, double noundef %48)
  br i1 %49, label %50, label %58

50:                                               ; preds = %40
  %51 = load ptr, ptr %4, align 8
  %52 = getelementptr inbounds nuw %struct.BOX, ptr %51, i32 0, i32 0
  %53 = getelementptr inbounds nuw %struct.Point, ptr %52, i32 0, i32 1
  %54 = load double, ptr %53, align 8
  %55 = load ptr, ptr %3, align 8
  %56 = getelementptr inbounds nuw %struct.BOX, ptr %55, i32 0, i32 0
  %57 = getelementptr inbounds nuw %struct.Point, ptr %56, i32 0, i32 1
  store double %54, ptr %57, align 8
  br label %58

58:                                               ; preds = %50, %40
  %59 = load ptr, ptr %3, align 8
  %60 = getelementptr inbounds nuw %struct.BOX, ptr %59, i32 0, i32 1
  %61 = getelementptr inbounds nuw %struct.Point, ptr %60, i32 0, i32 1
  %62 = load double, ptr %61, align 8
  %63 = load ptr, ptr %4, align 8
  %64 = getelementptr inbounds nuw %struct.BOX, ptr %63, i32 0, i32 1
  %65 = getelementptr inbounds nuw %struct.Point, ptr %64, i32 0, i32 1
  %66 = load double, ptr %65, align 8
  %67 = call zeroext i1 @float8_gt(double noundef %62, double noundef %66)
  br i1 %67, label %68, label %76

68:                                               ; preds = %58
  %69 = load ptr, ptr %4, align 8
  %70 = getelementptr inbounds nuw %struct.BOX, ptr %69, i32 0, i32 1
  %71 = getelementptr inbounds nuw %struct.Point, ptr %70, i32 0, i32 1
  %72 = load double, ptr %71, align 8
  %73 = load ptr, ptr %3, align 8
  %74 = getelementptr inbounds nuw %struct.BOX, ptr %73, i32 0, i32 1
  %75 = getelementptr inbounds nuw %struct.Point, ptr %74, i32 0, i32 1
  store double %72, ptr %75, align 8
  br label %76

76:                                               ; preds = %68, %58
  ret void
}

; Function Attrs: inlinehint nounwind uwtable
define internal ptr @DatumGetBoxP(i64 noundef %0) #2 {
  %2 = alloca i64, align 8
  store i64 %0, ptr %2, align 8
  %3 = load i64, ptr %2, align 8
  %4 = call ptr @DatumGetPointer(i64 noundef %3)
  ret ptr %4
}

; Function Attrs: inlinehint nounwind uwtable
define internal ptr @DatumGetPointer(i64 noundef %0) #2 {
  %2 = alloca i64, align 8
  store i64 %0, ptr %2, align 8
  %3 = load i64, ptr %2, align 8
  %4 = inttoptr i64 %3 to ptr
  ret ptr %4
}

; Function Attrs: nounwind uwtable
define dso_local i64 @gist_box_union(ptr noundef %0) #0 {
  %2 = alloca ptr, align 8
  %3 = alloca ptr, align 8
  %4 = alloca ptr, align 8
  %5 = alloca i32, align 4
  %6 = alloca i32, align 4
  %7 = alloca ptr, align 8
  %8 = alloca ptr, align 8
  store ptr %0, ptr %2, align 8
  call void @llvm.lifetime.start.p0(i64 8, ptr %3) #10
  %9 = load ptr, ptr %2, align 8
  %10 = getelementptr inbounds nuw %struct.FunctionCallInfoBaseData, ptr %9, i32 0, i32 6
  %11 = getelementptr inbounds [0 x %struct.NullableDatum], ptr %10, i64 0, i64 0
  %12 = getelementptr inbounds nuw %struct.NullableDatum, ptr %11, i32 0, i32 0
  %13 = load i64, ptr %12, align 8
  %14 = call ptr @DatumGetPointer(i64 noundef %13)
  store ptr %14, ptr %3, align 8
  call void @llvm.lifetime.start.p0(i64 8, ptr %4) #10
  %15 = load ptr, ptr %2, align 8
  %16 = getelementptr inbounds nuw %struct.FunctionCallInfoBaseData, ptr %15, i32 0, i32 6
  %17 = getelementptr inbounds [0 x %struct.NullableDatum], ptr %16, i64 0, i64 1
  %18 = getelementptr inbounds nuw %struct.NullableDatum, ptr %17, i32 0, i32 0
  %19 = load i64, ptr %18, align 8
  %20 = call ptr @DatumGetPointer(i64 noundef %19)
  store ptr %20, ptr %4, align 8
  call void @llvm.lifetime.start.p0(i64 4, ptr %5) #10
  call void @llvm.lifetime.start.p0(i64 4, ptr %6) #10
  call void @llvm.lifetime.start.p0(i64 8, ptr %7) #10
  call void @llvm.lifetime.start.p0(i64 8, ptr %8) #10
  %21 = load ptr, ptr %3, align 8
  %22 = getelementptr inbounds nuw %struct.GistEntryVector, ptr %21, i32 0, i32 0
  %23 = load i32, ptr %22, align 8
  store i32 %23, ptr %5, align 4
  %24 = call ptr @palloc(i64 noundef 32)
  store ptr %24, ptr %8, align 8
  %25 = load ptr, ptr %3, align 8
  %26 = getelementptr inbounds nuw %struct.GistEntryVector, ptr %25, i32 0, i32 1
  %27 = getelementptr inbounds [0 x %struct.GISTENTRY], ptr %26, i64 0, i64 0
  %28 = getelementptr inbounds nuw %struct.GISTENTRY, ptr %27, i32 0, i32 0
  %29 = load i64, ptr %28, align 8
  %30 = call ptr @DatumGetBoxP(i64 noundef %29)
  store ptr %30, ptr %7, align 8
  %31 = load ptr, ptr %8, align 8
  %32 = load ptr, ptr %7, align 8
  call void @llvm.memcpy.p0.p0.i64(ptr align 8 %31, ptr align 8 %32, i64 32, i1 false)
  store i32 1, ptr %6, align 4
  br label %33

33:                                               ; preds = %48, %1
  %34 = load i32, ptr %6, align 4
  %35 = load i32, ptr %5, align 4
  %36 = icmp slt i32 %34, %35
  br i1 %36, label %37, label %51

37:                                               ; preds = %33
  %38 = load ptr, ptr %3, align 8
  %39 = getelementptr inbounds nuw %struct.GistEntryVector, ptr %38, i32 0, i32 1
  %40 = load i32, ptr %6, align 4
  %41 = sext i32 %40 to i64
  %42 = getelementptr inbounds [0 x %struct.GISTENTRY], ptr %39, i64 0, i64 %41
  %43 = getelementptr inbounds nuw %struct.GISTENTRY, ptr %42, i32 0, i32 0
  %44 = load i64, ptr %43, align 8
  %45 = call ptr @DatumGetBoxP(i64 noundef %44)
  store ptr %45, ptr %7, align 8
  %46 = load ptr, ptr %8, align 8
  %47 = load ptr, ptr %7, align 8
  call void @adjustBox(ptr noundef %46, ptr noundef %47)
  br label %48

48:                                               ; preds = %37
  %49 = load i32, ptr %6, align 4
  %50 = add i32 %49, 1
  store i32 %50, ptr %6, align 4
  br label %33, !llvm.loop !6

51:                                               ; preds = %33
  %52 = load ptr, ptr %4, align 8
  store i32 32, ptr %52, align 4
  %53 = load ptr, ptr %8, align 8
  %54 = call i64 @PointerGetDatum(ptr noundef %53)
  call void @llvm.lifetime.end.p0(i64 8, ptr %8) #10
  call void @llvm.lifetime.end.p0(i64 8, ptr %7) #10
  call void @llvm.lifetime.end.p0(i64 4, ptr %6) #10
  call void @llvm.lifetime.end.p0(i64 4, ptr %5) #10
  call void @llvm.lifetime.end.p0(i64 8, ptr %4) #10
  call void @llvm.lifetime.end.p0(i64 8, ptr %3) #10
  ret i64 %54
}