; Function Attrs: nounwind uwtable
define dso_local noundef i64 @gist_box_union(ptr noundef readonly captures(none) %0) local_unnamed_addr #0 {
  %2 = getelementptr inbounds nuw i8, ptr %0, i64 32
  %3 = load i64, ptr %2, align 8
  %4 = inttoptr i64 %3 to ptr
  %5 = getelementptr inbounds nuw i8, ptr %0, i64 48
  %6 = load i64, ptr %5, align 8
  %7 = load i32, ptr %4, align 8
  %8 = tail call ptr @palloc(i64 noundef 32) #16
  %9 = getelementptr inbounds nuw i8, ptr %4, i64 8
  %10 = load i64, ptr %9, align 8
  %11 = inttoptr i64 %10 to ptr
  tail call void @llvm.memcpy.p0.p0.i64(ptr noundef nonnull align 8 dereferenceable(32) %8, ptr noundef nonnull align 8 dereferenceable(32) %11, i64 32, i1 false)
  %12 = icmp sgt i32 %7, 1
  br i1 %12, label %.lr.ph, label %._crit_edge

.lr.ph:                                           ; preds = %1
  %13 = getelementptr inbounds nuw i8, ptr %8, i64 16
  %14 = getelementptr inbounds nuw i8, ptr %8, i64 8
  %15 = getelementptr inbounds nuw i8, ptr %8, i64 24
  %.promoted = load double, ptr %8, align 8
  %.promoted15 = load double, ptr %14, align 8
  %wide.trip.count = zext nneg i32 %7 to i64
  br label %16

16:                                               ; preds = %.lr.ph, %adjustBox.exit
  %indvars.iv = phi i64 [ 1, %.lr.ph ], [ %indvars.iv.next, %adjustBox.exit ]
  %17 = phi double [ %.promoted15, %.lr.ph ], [ %44, %adjustBox.exit ]
  %18 = phi double [ %.promoted, %.lr.ph ], [ %28, %adjustBox.exit ]
  %19 = getelementptr inbounds nuw [0 x %struct.GISTENTRY], ptr %9, i64 0, i64 %indvars.iv
  %20 = load i64, ptr %19, align 8
  %21 = inttoptr i64 %20 to ptr
  %22 = load double, ptr %21, align 8
  %23 = fcmp uno double %18, 0.000000e+00
  br i1 %23, label %float8_lt.exit.thread.i, label %float8_lt.exit.i

float8_lt.exit.i:                                 ; preds = %16
  %24 = fcmp uno double %22, 0.000000e+00
  %25 = fcmp olt double %18, %22
  %26 = or i1 %24, %25
  br i1 %26, label %27, label %float8_lt.exit.thread.i

27:                                               ; preds = %float8_lt.exit.i
  store double %22, ptr %8, align 8
  br label %float8_lt.exit.thread.i

float8_lt.exit.thread.i:                          ; preds = %27, %float8_lt.exit.i, %16
  %28 = phi double [ %22, %27 ], [ %18, %float8_lt.exit.i ], [ %18, %16 ]
  %29 = getelementptr inbounds nuw i8, ptr %21, i64 16
  %30 = load double, ptr %29, align 8
  %31 = fcmp uno double %30, 0.000000e+00
  br i1 %31, label %float8_gt.exit.thread.i, label %float8_gt.exit.i

float8_gt.exit.i:                                 ; preds = %float8_lt.exit.thread.i
  %32 = load double, ptr %13, align 8
  %33 = fcmp uno double %32, 0.000000e+00
  %34 = fcmp ogt double %32, %30
  %35 = or i1 %33, %34
  br i1 %35, label %36, label %float8_gt.exit.thread.i

36:                                               ; preds = %float8_gt.exit.i
  store double %30, ptr %13, align 8
  br label %float8_gt.exit.thread.i

float8_gt.exit.thread.i:                          ; preds = %36, %float8_gt.exit.i, %float8_lt.exit.thread.i
  %37 = getelementptr inbounds nuw i8, ptr %21, i64 8
  %38 = load double, ptr %37, align 8
  %39 = fcmp uno double %17, 0.000000e+00
  br i1 %39, label %float8_lt.exit16.thread.i, label %float8_lt.exit16.i

float8_lt.exit16.i:                               ; preds = %float8_gt.exit.thread.i
  %40 = fcmp uno double %38, 0.000000e+00
  %41 = fcmp olt double %17, %38
  %42 = or i1 %40, %41
  br i1 %42, label %43, label %float8_lt.exit16.thread.i

43:                                               ; preds = %float8_lt.exit16.i
  store double %38, ptr %14, align 8
  br label %float8_lt.exit16.thread.i

float8_lt.exit16.thread.i:                        ; preds = %43, %float8_lt.exit16.i, %float8_gt.exit.thread.i
  %44 = phi double [ %38, %43 ], [ %17, %float8_lt.exit16.i ], [ %17, %float8_gt.exit.thread.i ]
  %45 = getelementptr inbounds nuw i8, ptr %21, i64 24
  %46 = load double, ptr %45, align 8
  %47 = fcmp uno double %46, 0.000000e+00
  br i1 %47, label %adjustBox.exit, label %float8_gt.exit17.i

float8_gt.exit17.i:                               ; preds = %float8_lt.exit16.thread.i
  %48 = load double, ptr %15, align 8
  %49 = fcmp uno double %48, 0.000000e+00
  %50 = fcmp ogt double %48, %46
  %51 = or i1 %49, %50
  br i1 %51, label %52, label %adjustBox.exit

52:                                               ; preds = %float8_gt.exit17.i
  store double %46, ptr %15, align 8
  br label %adjustBox.exit

adjustBox.exit:                                   ; preds = %float8_lt.exit16.thread.i, %float8_gt.exit17.i, %52
  %indvars.iv.next = add nuw nsw i64 %indvars.iv, 1
  %exitcond.not = icmp eq i64 %indvars.iv.next, %wide.trip.count
  br i1 %exitcond.not, label %._crit_edge, label %16, !llvm.loop !4

._crit_edge:                                      ; preds = %adjustBox.exit, %1
  %53 = inttoptr i64 %6 to ptr
  store i32 32, ptr %53, align 4
  %54 = ptrtoint ptr %8 to i64
  ret i64 %54
}